target datalayout = "e-m:e-p270:32:32-p271:32:32-p272:64:64-i64:64-i128:128-f80:128-n8:16:32:64-S128"
target triple = "x86_64-pc-linux-gnu"

%struct.SurfaceDataRasInfo = type { %struct.SurfaceDataBounds, ptr, i32, i32, i32, i32, ptr, ptr, ptr, ptr, ptr, ptr, i32, %union.anon.0 }
%struct.SurfaceDataBounds = type { i32, i32, i32, i32 }
%union.anon.0 = type { ptr, [56 x i8] }
%struct._CompositeInfo = type { i32, %union.anon.1, i32 }
%union.anon.1 = type { float }

; Function Attrs: nounwind uwtable
define hidden void @IntArgbToUshortGrayXorBlit(ptr noundef %0, ptr noundef %1, i32 noundef %2, i32 noundef %3, ptr noundef %4, ptr noundef %5, ptr noundef %6, ptr noundef %7) #1 {
  %9 = alloca ptr, align 8
  %10 = alloca ptr, align 8
  %11 = alloca i32, align 4
  %12 = alloca i32, align 4
  %13 = alloca ptr, align 8
  %14 = alloca ptr, align 8
  %15 = alloca ptr, align 8
  %16 = alloca ptr, align 8
  %17 = alloca i32, align 4
  %18 = alloca i32, align 4
  %19 = alloca ptr, align 8
  %20 = alloca ptr, align 8
  %21 = alloca i32, align 4
  %22 = alloca i32, align 4
  %23 = alloca i32, align 4
  %24 = alloca i32, align 4
  %25 = alloca i32, align 4
  %26 = alloca i32, align 4
  %27 = alloca i32, align 4
  store ptr %0, ptr %9, align 8
  store ptr %1, ptr %10, align 8
  store i32 %2, ptr %11, align 4
  store i32 %3, ptr %12, align 4
  store ptr %4, ptr %13, align 8
  store ptr %5, ptr %14, align 8
  store ptr %6, ptr %15, align 8
  store ptr %7, ptr %16, align 8
  %28 = load ptr, ptr %16, align 8
  %29 = getelementptr inbounds %struct._CompositeInfo, ptr %28, i32 0, i32 1
  %30 = load i32, ptr %29, align 4
  store i32 %30, ptr %17, align 4
  %31 = load ptr, ptr %16, align 8
  %32 = getelementptr inbounds %struct._CompositeInfo, ptr %31, i32 0, i32 2
  %33 = load i32, ptr %32, align 4
  store i32 %33, ptr %18, align 4
  br label %34

34:                                               ; preds = %8
  %35 = load ptr, ptr %9, align 8
  store ptr %35, ptr %19, align 8
  %36 = load ptr, ptr %10, align 8
  store ptr %36, ptr %20, align 8
  %37 = load ptr, ptr %13, align 8
  %38 = getelementptr inbounds %struct.SurfaceDataRasInfo, ptr %37, i32 0, i32 4
  %39 = load i32, ptr %38, align 8
  store i32 %39, ptr %21, align 4
  %40 = load ptr, ptr %14, align 8
  %41 = getelementptr inbounds %struct.SurfaceDataRasInfo, ptr %40, i32 0, i32 4
  %42 = load i32, ptr %41, align 8
  store i32 %42, ptr %22, align 4
  %43 = load i32, ptr %11, align 4
  %44 = mul i32 %43, 4
  %45 = load i32, ptr %21, align 4
  %46 = sub i32 %45, %44
  store i32 %46, ptr %21, align 4
  %47 = load i32, ptr %11, align 4
  %48 = mul i32 %47, 2
  %49 = load i32, ptr %22, align 4
  %50 = sub i32 %49, %48
  store i32 %50, ptr %22, align 4
  br label %51

51:                                               ; preds = %123, %34
  %52 = load i32, ptr %11, align 4
  store i32 %52, ptr %23, align 4
  br label %53

53:                                               ; preds = %106, %51
  br label %54

54:                                               ; preds = %53
  %55 = load ptr, ptr %19, align 8
  %56 = getelementptr inbounds i32, ptr %55, i64 0
  %57 = load i32, ptr %56, align 4
  store i32 %57, ptr %24, align 4
  %58 = load i32, ptr %24, align 4
  %59 = icmp sge i32 %58, 0
  br i1 %59, label %60, label %61

60:                                               ; preds = %54
  br label %97

61:                                               ; preds = %54
  br label %62

62:                                               ; preds = %61
  br label %63

63:                                               ; preds = %62
  %64 = load i32, ptr %24, align 4
  %65 = and i32 %64, 255
  store i32 %65, ptr %27, align 4
  %66 = load i32, ptr %24, align 4
  %67 = ashr i32 %66, 8
  %68 = and i32 %67, 255
  store i32 %68, ptr %26, align 4
  %69 = load i32, ptr %24, align 4
  %70 = ashr i32 %69, 16
  %71 = and i32 %70, 255
  store i32 %71, ptr %25, align 4
  br label %72

72:                                               ; preds = %63
  %73 = load i32, ptr %25, align 4
  %74 = mul nsw i32 19672, %73
  %75 = load i32, ptr %26, align 4
  %76 = mul nsw i32 38621, %75
  %77 = add nsw i32 %74, %76
  %78 = load i32, ptr %27, align 4
  %79 = mul nsw i32 7500, %78
  %80 = add nsw i32 %77, %79
  %81 = sdiv i32 %80, 256
  %82 = trunc i32 %81 to i16
  %83 = zext i16 %82 to i32
  store i32 %83, ptr %24, align 4
  br label %84

84:                                               ; preds = %72
  %85 = load i32, ptr %24, align 4
  %86 = load i32, ptr %17, align 4
  %87 = xor i32 %85, %86
  %88 = load i32, ptr %18, align 4
  %89 = xor i32 %88, -1
  %90 = and i32 %87, %89
  %91 = load ptr, ptr %20, align 8
  %92 = getelementptr inbounds i16, ptr %91, i64 0
  %93 = load i16, ptr %92, align 2
  %94 = zext i16 %93 to i32
  %95 = xor i32 %94, %90
  %96 = trunc i32 %95 to i16
  store i16 %96, ptr %92, align 2
  br label %97

97:                                               ; preds = %84, %60
  %98 = load ptr, ptr %19, align 8
  %99 = ptrtoint ptr %98 to i64
  %100 = add nsw i64 %99, 4
  %101 = inttoptr i64 %100 to ptr
  store ptr %101, ptr %19, align 8
  %102 = load ptr, ptr %20, align 8
  %103 = ptrtoint ptr %102 to i64
  %104 = add nsw i64 %103, 2
  %105 = inttoptr i64 %104 to ptr
  store ptr %105, ptr %20, align 8
  br label %106

106:                                              ; preds = %97
  %107 = load i32, ptr %23, align 4
  %108 = add i32 %107, -1
  store i32 %108, ptr %23, align 4
  %109 = icmp ugt i32 %108, 0
  br i1 %109, label %53, label %110, !llvm.loop !45

110:                                              ; preds = %106
  %111 = load ptr, ptr %19, align 8
  %112 = ptrtoint ptr %111 to i64
  %113 = load i32, ptr %21, align 4
  %114 = sext i32 %113 to i64
  %115 = add nsw i64 %112, %114
  %116 = inttoptr i64 %115 to ptr
  store ptr %116, ptr %19, align 8
  %117 = load ptr, ptr %20, align 8
  %118 = ptrtoint ptr %117 to i64
  %119 = load i32, ptr %22, align 4
  %120 = sext i32 %119 to i64
  %121 = add nsw i64 %118, %120
  %122 = inttoptr i64 %121 to ptr
  store ptr %122, ptr %20, align 8
  br label %123

123:                                              ; preds = %110
  %124 = load i32, ptr %12, align 4
  %125 = add i32 %124, -1
  store i32 %125, ptr %12, align 4
  %126 = icmp ugt i32 %125, 0
  br i1 %126, label %51, label %127, !llvm.loop !46

127:                                              ; preds = %123
  br label %128

128:                                              ; preds = %127
  ret void
}