; Function Attrs: nofree norecurse nosync nounwind memory(readwrite, inaccessiblemem: none) uwtable
define hidden void @IntArgbToUshortGrayXorBlit(ptr noundef %0, ptr noundef %1, i32 noundef %2, i32 noundef %3, ptr nocapture noundef readonly %4, ptr nocapture noundef readonly %5, ptr nocapture readnone %6, ptr nocapture noundef readonly %7) #1 {
  %9 = getelementptr inbounds i8, ptr %7, i64 4
  %10 = load i32, ptr %9, align 4
  %11 = getelementptr inbounds i8, ptr %7, i64 8
  %12 = load i32, ptr %11, align 4
  %13 = getelementptr inbounds i8, ptr %4, i64 32
  %14 = load i32, ptr %13, align 8
  %15 = getelementptr inbounds i8, ptr %5, i64 32
  %16 = load i32, ptr %15, align 8
  %17 = shl i32 %2, 2
  %18 = sub i32 %14, %17
  %19 = shl i32 %2, 1
  %20 = sub i32 %16, %19
  %21 = sext i32 %18 to i64
  %22 = xor i32 %12, -1
  %23 = sext i32 %20 to i64
  br label %24

24:                                               ; preds = %53, %8
  %.031 = phi ptr [ %1, %8 ], [ %57, %53 ]
  %.030 = phi ptr [ %0, %8 ], [ %55, %53 ]
  %.0 = phi i32 [ %3, %8 ], [ %58, %53 ]
  br label %25

25:                                               ; preds = %45, %24
  %.033 = phi i32 [ %2, %24 ], [ %52, %45 ]
  %.132 = phi ptr [ %.031, %24 ], [ %51, %45 ]
  %.1 = phi ptr [ %.030, %24 ], [ %48, %45 ]
  %26 = load i32, ptr %.1, align 4
  %27 = icmp sgt i32 %26, -1
  br i1 %27, label %45, label %28

28:                                               ; preds = %25
  %29 = and i32 %26, 255
  %30 = lshr i32 %26, 8
  %31 = and i32 %30, 255
  %32 = lshr i32 %26, 16
  %33 = and i32 %32, 255
  %34 = mul nuw nsw i32 %33, 19672
  %35 = mul nuw nsw i32 %31, 38621
  %36 = mul nuw nsw i32 %29, 7500
  %37 = add nuw nsw i32 %35, %36
  %38 = add nuw nsw i32 %37, %34
  %39 = lshr i32 %38, 8
  %40 = xor i32 %39, %10
  %41 = and i32 %40, %22
  %42 = load i16, ptr %.132, align 2
  %43 = trunc i32 %41 to i16
  %44 = xor i16 %42, %43
  store i16 %44, ptr %.132, align 2
  br label %45

45:                                               ; preds = %25, %28
  %46 = ptrtoint ptr %.1 to i64
  %47 = add nsw i64 %46, 4
  %48 = inttoptr i64 %47 to ptr
  %49 = ptrtoint ptr %.132 to i64
  %50 = add nsw i64 %49, 2
  %51 = inttoptr i64 %50 to ptr
  %52 = add i32 %.033, -1
  %.not = icmp eq i32 %52, 0
  br i1 %.not, label %53, label %25, !llvm.loop !41

53:                                               ; preds = %45
  %54 = add nsw i64 %47, %21
  %55 = inttoptr i64 %54 to ptr
  %56 = add nsw i64 %50, %23
  %57 = inttoptr i64 %56 to ptr
  %58 = add i32 %.0, -1
  %.not37 = icmp eq i32 %58, 0
  br i1 %.not37, label %59, label %24, !llvm.loop !42

59:                                               ; preds = %53
  ret void
}